; Function Attrs: mustprogress uwtable
define noundef zeroext i1 @_ZN4base11ReplaceFileERKNS_8FilePathES2_PNS_4File5ErrorE(ptr noundef nonnull readonly align 8 captures(none) dereferenceable(32) %0, ptr noundef nonnull readonly align 8 captures(none) dereferenceable(32) %1, ptr noundef writeonly captures(address_is_null) %2) local_unnamed_addr #0 {
  %4 = load ptr, ptr %0, align 8, !tbaa !3
  %5 = load ptr, ptr %1, align 8, !tbaa !3
  %6 = tail call i32 @rename(ptr noundef %4, ptr noundef %5) #24
  %7 = icmp eq i32 %6, 0
  %.not = icmp eq ptr %2, null
  %or.cond = or i1 %.not, %7
  br i1 %or.cond, label %12, label %8

8:                                                ; preds = %3
  %9 = tail call ptr @__errno_location() #25
  %10 = load i32, ptr %9, align 4, !tbaa !11
  %11 = tail call noundef i32 @_ZN4base4File18OSErrorToFileErrorEi(i32 noundef %10)
  store i32 %11, ptr %2, align 4, !tbaa !39
  br label %12

12:                                               ; preds = %8, %3
  ret i1 %7
}